; Function Attrs: mustprogress nofree norecurse nosync nounwind willreturn memory(read, inaccessiblemem: none) uwtable
define hidden noundef zeroext i1 @_ZN6google8protobuf8compiler6csharp16MessageGenerator23HasNestedGeneratedTypesEv(ptr nocapture noundef nonnull readonly align 8 dereferenceable(57) %this) local_unnamed_addr #9 align 2 {
entry:
  %descriptor_ = getelementptr inbounds i8, ptr %this, i64 16
  %0 = load ptr, ptr %descriptor_, align 8
  %enum_type_count_.i = getelementptr inbounds i8, ptr %0, i64 132
  %1 = load i32, ptr %enum_type_count_.i, align 4
  %cmp = icmp sgt i32 %1, 0
  br i1 %cmp, label %return, label %for.cond.preheader

for.cond.preheader:                               ; preds = %entry
  %nested_type_count_.i = getelementptr inbounds i8, ptr %0, i64 128
  %2 = load i32, ptr %nested_type_count_.i, align 8
  %cmp43 = icmp sgt i32 %2, 0
  br i1 %cmp43, label %for.body.lr.ph, label %return

for.body.lr.ph:                                   ; preds = %for.cond.preheader
  %nested_types_.i = getelementptr inbounds i8, ptr %0, i64 72
  %3 = load ptr, ptr %nested_types_.i, align 8
  %wide.trip.count = zext nneg i32 %2 to i64
  br label %for.body

for.body:                                         ; preds = %for.body, %for.body.lr.ph
  %indvars.iv = phi i64 [ 0, %for.body.lr.ph ], [ %indvars.iv.next, %for.body ]
  %options_.i.i = getelementptr inbounds %"class.google::protobuf::Descriptor", ptr %3, i64 %indvars.iv, i32 7
  %4 = load ptr, ptr %options_.i.i, align 8
  %map_entry_.i.i.i = getelementptr inbounds i8, ptr %4, i64 83
  %5 = load i8, ptr %map_entry_.i.i.i, align 1
  %6 = and i8 %5, 1
  %tobool.i.i.i.not = icmp eq i8 %6, 0
  %indvars.iv.next = add nuw nsw i64 %indvars.iv, 1
  %exitcond.not = icmp eq i64 %indvars.iv.next, %wide.trip.count
  %or.cond = select i1 %tobool.i.i.i.not, i1 true, i1 %exitcond.not
  br i1 %or.cond, label %return, label %for.body, !llvm.loop !87

return:                                           ; preds = %for.body, %for.cond.preheader, %entry
  %retval.0 = phi i1 [ true, %entry ], [ false, %for.cond.preheader ], [ %tobool.i.i.i.not, %for.body ]
  ret i1 %retval.0
}